; Function Attrs: nounwind uwtable
define hidden void @VP8TBufferClear(ptr noundef %0) local_unnamed_addr #1 {
  %.not = icmp eq ptr %0, null
  br i1 %.not, label %12, label %2

2:                                                ; preds = %1
  %3 = load ptr, ptr %0, align 8, !tbaa !12
  %.not910 = icmp eq ptr %3, null
  br i1 %.not910, label %._crit_edge, label %.lr.ph

.lr.ph:                                           ; preds = %2, %.lr.ph
  %.011 = phi ptr [ %4, %.lr.ph ], [ %3, %2 ]
  %4 = load ptr, ptr %.011, align 8, !tbaa !17
  tail call void @WebPSafeFree(ptr noundef nonnull %.011) #5
  %.not9 = icmp eq ptr %4, null
  br i1 %.not9, label %._crit_edge, label %.lr.ph, !llvm.loop !19

._crit_edge:                                      ; preds = %.lr.ph, %2
  %5 = getelementptr inbounds nuw i8, ptr %0, i64 28
  %6 = load i32, ptr %5, align 4, !tbaa !15
  %7 = getelementptr inbounds nuw i8, ptr %0, i64 16
  store ptr null, ptr %7, align 8, !tbaa !3
  store ptr null, ptr %0, align 8, !tbaa !12
  %8 = getelementptr inbounds nuw i8, ptr %0, i64 8
  store ptr %0, ptr %8, align 8, !tbaa !13
  %9 = getelementptr inbounds nuw i8, ptr %0, i64 24
  store i32 0, ptr %9, align 8, !tbaa !14
  %10 = tail call i32 @llvm.smax.i32(i32 %6, i32 8192)
  store i32 %10, ptr %5, align 4, !tbaa !15
  %11 = getelementptr inbounds nuw i8, ptr %0, i64 32
  store i32 0, ptr %11, align 8, !tbaa !16
  br label %12

12:                                               ; preds = %._crit_edge, %1
  ret void
}